(dp1
S'133'
p2
V116.9.156.105:3123
p3
sS'132'
p4
V218.56.132.155:8080
p5
sS'131'
p6
V218.56.132.154:8080
p7
sS'130'
p8
V218.56.132.157:8080
p9
sS'137'
p10
V114.212.160.2:80
p11
sS'136'
p12
V218.92.227.173:19305
p13
sS'135'
p14
V221.237.154.58:9797
p15
sS'134'
p16
V218.92.227.171:33925
p17
sS'139'
p18
V180.166.55.42:3128
p19
sS'138'
p20
V218.106.205.145:8080
p21
sS'24'
p22
V60.21.221.228:80
p23
sS'25'
p24
V121.40.203.107:8088
p25
sS'26'
p26
V222.41.113.43:8080
p27
sS'27'
p28
V123.65.217.151:9797
p29
sS'20'
p30
V221.228.197.28:8080
p31
sS'21'
p32
V115.231.16.138:8080
p33
sS'22'
p34
V124.47.7.45:80
p35
sS'23'
p36
V119.29.232.113:3128
p37
sS'28'
p38
V61.153.145.202:25
p39
sS'29'
p40
V121.14.9.76:80
p41
sS'4'
V124.42.7.103:80
p42
sS'8'
V210.51.2.203:8089
p43
sS'119'
p44
V110.73.182.12:9000
p45
sS'120'
p46
V124.160.225.37:3128
p47
sS'121'
p48
V221.214.221.148:3128
p49
sS'122'
p50
V60.174.237.43:9999
p51
sS'123'
p52
V202.106.16.36:3128
p53
sS'124'
p54
V218.56.132.158:8080
p55
sS'125'
p56
V115.183.11.158:9999
p57
sS'126'
p58
V112.74.207.196:3128
p59
sS'127'
p60
V120.24.73.165:3128
p61
sS'128'
p62
V121.40.108.76:80
p63
sS'129'
p64
V218.56.132.156:8080
p65
sS'118'
p66
V58.59.68.91:9797
p67
sS'59'
p68
V58.67.159.50:80
p69
sS'58'
p70
V113.200.159.155:9999
p71
sS'55'
p72
V59.72.122.3:1080
p73
sS'54'
p74
V219.232.125.232:3128
p75
sS'57'
p76
V221.193.235.94:9999
p77
sS'56'
p78
V60.191.134.162:9999
p79
sS'51'
p80
V119.254.84.90:80
p81
sS'50'
p82
V180.169.8.51:3128
p83
sS'53'
p84
V202.118.8.13:3128
p85
sS'52'
p86
V112.90.159.146:8888
p87
sS'115'
p88
V119.254.88.53:8080
p89
sS'114'
p90
V183.133.51.97:8998
p91
sS'88'
p92
V113.200.29.10:9999
p93
sS'89'
p94
V198.2.202.35:8090
p95
sS'111'
p96
V222.185.229.56:80
p97
sS'110'
p98
V180.153.87.22:18080
p99
sS'113'
p100
V218.92.227.165:20093
p101
sS'112'
p102
V117.158.206.44:9797
p103
sS'82'
p104
V58.52.201.119:8080
p105
sS'83'
p106
V198.2.202.33:8090
p107
sS'80'
p108
V123.7.115.141:9797
p109
sS'81'
p110
V124.207.82.166:8008
p111
sS'86'
p112
V220.249.185.178:9797
p113
sS'87'
p114
V101.230.214.25:8080
p115
sS'84'
p116
V58.214.5.229:80
p117
sS'85'
p118
V198.2.202.37:80
p119
sS'3'
V110.206.127.136:9797
p120
sS'7'
V119.80.56.76:8080
p121
sS'108'
p122
V114.215.150.13:3128
p123
sS'109'
p124
V117.164.101.211:8123
p125
sS'102'
p126
V120.52.73.97:8085
p127
sS'103'
p128
V222.161.3.163:9999
p129
sS'100'
p130
V220.248.229.45:3128
p131
sS'101'
p132
V223.68.1.38:8000
p133
sS'106'
p134
V27.46.43.68:9797
p135
sS'107'
p136
V120.85.132.234:80
p137
sS'104'
p138
V120.52.73.98:8081
p139
sS'105'
p140
V117.176.62.148:3128
p141
sS'39'
p142
V139.196.51.232:3128
p143
sS'38'
p144
V122.224.227.202:3128
p145
sS'33'
p146
V218.6.145.11:9797
p147
sS'32'
p148
V121.12.120.246:2008
p149
sS'31'
p150
V111.11.98.58:9000
p151
sS'30'
p152
V115.231.94.34:7777
p153
sS'37'
p154
V218.90.174.167:3128
p155
sS'36'
p156
V198.2.202.41:8090
p157
sS'35'
p158
V221.176.153.94:9000
p159
sS'34'
p160
V118.186.17.91:8080
p161
sS'60'
p162
V106.37.234.91:443
p163
sS'61'
p164
V183.131.76.27:8888
p165
sS'62'
p166
V111.177.124.144:9797
p167
sS'63'
p168
V123.13.204.151:9999
p169
sS'64'
p170
V119.52.11.14:9999
p171
sS'65'
p172
V121.41.110.73:8080
p173
sS'66'
p174
V218.75.144.25:9000
p175
sS'67'
p176
V123.5.57.136:9999
p177
sS'68'
p178
V61.134.25.106:3128
p179
sS'69'
p180
V101.231.46.34:8000
p181
sS'2'
V119.135.185.99:9797
p182
sS'6'
V218.22.65.60:60088
p183
sS'99'
p184
V202.108.2.42:80
p185
sS'98'
p186
V101.64.239.138:8080
p187
sS'91'
p188
V61.162.223.41:9797
p189
sS'90'
p190
V115.231.16.175:8080
p191
sS'93'
p192
V120.197.57.244:8000
p193
sS'92'
p194
V59.175.238.41:443
p195
sS'95'
p196
V222.82.222.242:9999
p197
sS'94'
p198
V118.180.7.30:9000
p199
sS'97'
p200
V42.157.7.43:9999
p201
sS'96'
p202
V222.140.4.8:9797
p203
sS'11'
p204
V58.19.164.35:3128
p205
sS'10'
p206
V122.228.179.178:80
p207
sS'13'
p208
V124.239.177.85:8080
p209
sS'12'
p210
V101.69.178.145:7777
p211
sS'15'
p212
V1.82.216.135:80
p213
sS'14'
p214
V1.82.216.134:80
p215
sS'17'
p216
V222.80.72.30:1337
p217
sS'16'
p218
V218.241.234.48:8080
p219
sS'19'
p220
V203.91.121.74:3128
p221
sS'18'
p222
V220.248.230.217:3128
p223
sS'117'
p224
V218.29.111.106:9797
p225
sS'116'
p226
V124.128.221.27:8080
p227
sS'48'
p228
V111.40.84.73:9797
p229
sS'49'
p230
V198.2.202.54:8090
p231
sS'46'
p232
V221.237.154.57:9797
p233
sS'47'
p234
V61.143.158.238:808
p235
sS'44'
p236
V106.120.78.129:80
p237
sS'45'
p238
V121.8.170.53:9797
p239
sS'42'
p240
V113.108.253.195:9797
p241
sS'43'
p242
V101.254.188.198:8080
p243
sS'40'
p244
V139.196.140.9:80
p245
sS'41'
p246
V120.237.103.114:8080
p247
sS'1'
V58.215.12.86:80
p248
sS'5'
V113.108.141.98:9797
p249
sS'9'
V124.89.35.206:9999
p250
sS'142'
p251
V183.131.151.208:80
p252
sS'140'
p253
V117.158.1.210:9797
p254
sS'141'
p255
V218.241.153.211:81
p256
sS'77'
p257
V101.64.239.195:8080
p258
sS'76'
p259
V60.21.209.114:8080
p260
sS'75'
p261
V119.29.103.13:8888
p262
sS'74'
p263
V120.204.85.29:3128
p264
sS'73'
p265
V115.46.88.84:8080
p266
sS'72'
p267
V123.52.130.3:9999
p268
sS'71'
p269
V111.177.124.140:9797
p270
sS'70'
p271
V101.251.199.66:3128
p272
sS'79'
p273
V122.227.171.22:9999
p274
sS'78'
p275
V123.138.73.122:9797
p276
s.